ccopy_reg
_reconstructor
p0
(cguestbook_classes
Guestbook
p1
c__builtin__
object
p2
Ntp3
Rp4
(dp5
S'entries'
p6
(lp7
g0
(cguestbook_classes
Entry
p8
g2
Ntp9
Rp10
(dp11
S'comment'
p12
S'It was pretty good.'
p13
sS'timestamp'
p14
cdatetime
datetime
p15
(S'\x07\xe1\x0c\x14\x14\x04\x1f\x05M\x1e'
p16
tp17
Rp18
sS'author'
p19
S'Steve'
p20
sbag0
(g8
g2
Ntp21
Rp22
(dp23
g12
S'I fuckin hated it!'
p24
sg14
g15
(S'\x07\xe1\x0c\x14\x14\x04\x1f\x05M\xfd'
p25
tp26
Rp27
sg19
S'Dacks'
p28
sbag0
(g8
g2
Ntp29
Rp30
(dp31
g12
S'The tacos were great!!'
p32
sg14
g15
(S'\x07\xe1\x0c\x14\x14\x04\x1f\x05N\x00'
p33
tp34
Rp35
sg19
S'Veronica'
p36
sbag0
(g8
g2
Ntp37
Rp38
(dp39
g12
S"Where's the nearest bar?"
p40
sg14
g15
(S'\x07\xe1\x0c\x14\x14\x04\x1f\x05U\xcd'
p41
tp42
Rp43
sg19
S'Joe'
p44
sbasS'id'
p45
S'a8b1'
p46
sS'title'
p47
S'Dacks Guestbook'
p48
sb.